target datalayout = "e-m:e-p270:32:32-p271:32:32-p272:64:64-i64:64-i128:128-f80:128-n8:16:32:64-S128"
target triple = "x86_64-pc-linux-gnu"

%"class.llvm::InitLLVM" = type { %"class.llvm::BumpPtrAllocatorImpl", %"class.llvm::SmallVector.6", %"class.std::optional" }
%"class.llvm::BumpPtrAllocatorImpl" = type { ptr, ptr, %"class.llvm::SmallVector", %"class.llvm::SmallVector.1", i64, i64 }
%"class.llvm::SmallVector" = type { %"class.llvm::SmallVectorImpl", %"struct.llvm::SmallVectorStorage" }
%"class.llvm::SmallVectorImpl" = type { %"class.llvm::SmallVectorTemplateBase" }
%"class.llvm::SmallVectorTemplateBase" = type { %"class.llvm::SmallVectorTemplateCommon" }
%"class.llvm::SmallVectorTemplateCommon" = type { %"class.llvm::SmallVectorBase" }
%"class.llvm::SmallVectorBase" = type { ptr, i32, i32 }
%"struct.llvm::SmallVectorStorage" = type { [32 x i8] }
%"class.llvm::SmallVector.1" = type { %"class.llvm::SmallVectorImpl.2" }
%"class.llvm::SmallVectorImpl.2" = type { %"class.llvm::SmallVectorTemplateBase.3" }
%"class.llvm::SmallVectorTemplateBase.3" = type { %"class.llvm::SmallVectorTemplateCommon.4" }
%"class.llvm::SmallVectorTemplateCommon.4" = type { %"class.llvm::SmallVectorBase" }
%"class.llvm::SmallVector.6" = type { %"class.llvm::SmallVectorImpl.7" }
%"class.llvm::SmallVectorImpl.7" = type { %"class.llvm::SmallVectorTemplateBase.8" }
%"class.llvm::SmallVectorTemplateBase.8" = type { %"class.llvm::SmallVectorTemplateCommon.9" }
%"class.llvm::SmallVectorTemplateCommon.9" = type { %"class.llvm::SmallVectorBase" }
%"class.std::optional" = type { %"struct.std::_Optional_base" }
%"struct.std::_Optional_base" = type { %"struct.std::_Optional_payload" }
%"struct.std::_Optional_payload" = type { %"struct.std::_Optional_payload.base", [7 x i8] }
%"struct.std::_Optional_payload.base" = type { %"struct.std::_Optional_payload_base.base" }
%"struct.std::_Optional_payload_base.base" = type <{ %"union.std::_Optional_payload_base<llvm::PrettyStackTraceProgram>::_Storage", i8 }>
%"union.std::_Optional_payload_base<llvm::PrettyStackTraceProgram>::_Storage" = type { %"class.llvm::PrettyStackTraceProgram" }
%"class.llvm::PrettyStackTraceProgram" = type { %"class.llvm::PrettyStackTraceEntry", i32, ptr }
%"class.llvm::PrettyStackTraceEntry" = type { ptr, ptr }
%"struct.llvm::ToolContext" = type { ptr, ptr, i8 }

$_ZN4llvm8InitLLVMC2ERiRPPcb = comdat any

@_ZN4llvm24DisableABIBreakingChecksE = external global i32, align 4
@_ZN4llvm30VerifyDisableABIBreakingChecksE = weak hidden global ptr @_ZN4llvm24DisableABIBreakingChecksE, align 8

; Function Attrs: mustprogress norecurse nounwind uwtable
define dso_local noundef i32 @main(i32 noundef %0, ptr noundef %1) #0 {
  %3 = alloca i32, align 4
  %4 = alloca i32, align 4
  %5 = alloca ptr, align 8
  %6 = alloca %"class.llvm::InitLLVM", align 8
  %7 = alloca %"struct.llvm::ToolContext", align 8
  store i32 0, ptr %3, align 4
  store i32 %0, ptr %4, align 4
  store ptr %1, ptr %5, align 8
  call void @_ZN4llvm8InitLLVMC2ERiRPPcb(ptr noundef nonnull align 8 dereferenceable(152) %6, ptr noundef nonnull align 4 dereferenceable(4) %4, ptr noundef nonnull align 8 dereferenceable(8) %5, i1 noundef zeroext true)
  %8 = load i32, ptr %4, align 4
  %9 = load ptr, ptr %5, align 8
  %10 = getelementptr inbounds nuw %"struct.llvm::ToolContext", ptr %7, i32 0, i32 0
  %11 = load ptr, ptr %5, align 8
  %12 = getelementptr inbounds ptr, ptr %11, i64 0
  %13 = load ptr, ptr %12, align 8
  store ptr %13, ptr %10, align 8
  %14 = getelementptr inbounds nuw %"struct.llvm::ToolContext", ptr %7, i32 0, i32 1
  store ptr null, ptr %14, align 8
  %15 = getelementptr inbounds nuw %"struct.llvm::ToolContext", ptr %7, i32 0, i32 2
  store i8 0, ptr %15, align 8
  %16 = call noundef i32 @_Z10clang_mainiPPcRKN4llvm11ToolContextE(i32 noundef %8, ptr noundef %9, ptr noundef nonnull align 8 dereferenceable(24) %7)
  store i32 %16, ptr %3, align 4
  call void @_ZN4llvm8InitLLVMD1Ev(ptr noundef nonnull align 8 dereferenceable(152) %6) #4
  %17 = load i32, ptr %3, align 4
  ret i32 %17
}

; Function Attrs: mustprogress nounwind uwtable
define linkonce_odr hidden void @_ZN4llvm8InitLLVMC2ERiRPPcb(ptr noundef nonnull align 8 dereferenceable(152) %0, ptr noundef nonnull align 4 dereferenceable(4) %1, ptr noundef nonnull align 8 dereferenceable(8) %2, i1 noundef zeroext %3) unnamed_addr #1 comdat align 2 {
  %5 = alloca ptr, align 8
  %6 = alloca ptr, align 8
  %7 = alloca ptr, align 8
  %8 = alloca i8, align 1
  store ptr %0, ptr %5, align 8
  store ptr %1, ptr %6, align 8
  store ptr %2, ptr %7, align 8
  %9 = zext i1 %3 to i8
  store i8 %9, ptr %8, align 1
  %10 = load ptr, ptr %5, align 8
  %11 = load ptr, ptr %6, align 8
  %12 = load ptr, ptr %7, align 8
  %13 = load i8, ptr %8, align 1
  %14 = trunc i8 %13 to i1
  call void @_ZN4llvm8InitLLVMC2ERiRPPKcb(ptr noundef nonnull align 8 dereferenceable(152) %10, ptr noundef nonnull align 4 dereferenceable(4) %11, ptr noundef nonnull align 8 dereferenceable(8) %12, i1 noundef zeroext %14)
  ret void
}

declare noundef i32 @_Z10clang_mainiPPcRKN4llvm11ToolContextE(i32 noundef, ptr noundef, ptr noundef nonnull align 8 dereferenceable(24)) #2

; Function Attrs: nounwind
declare void @_ZN4llvm8InitLLVMD1Ev(ptr noundef nonnull align 8 dereferenceable(152)) unnamed_addr #3

declare void @_ZN4llvm8InitLLVMC2ERiRPPKcb(ptr noundef nonnull align 8 dereferenceable(152), ptr noundef nonnull align 4 dereferenceable(4), ptr noundef nonnull align 8 dereferenceable(8), i1 noundef zeroext) unnamed_addr #2


!llvm.module.flags = !{!0, !1, !2, !3}

!0 = !{i32 1, !"wchar_size", i32 4}
!1 = !{i32 8, !"PIC Level", i32 2}
!2 = !{i32 7, !"uwtable", i32 2}
!3 = !{i32 7, !"frame-pointer", i32 2}
