; ModuleID = 'bench/llvm/original/clang-driver.cpp.ll'
source_filename = "bench/llvm/original/clang-driver.cpp.ll"
target datalayout = "e-m:e-p270:32:32-p271:32:32-p272:64:64-i64:64-i128:128-f80:128-n8:16:32:64-S128"
target triple = "x86_64-pc-linux-gnu"

%"class.llvm::InitLLVM" = type { %"class.llvm::BumpPtrAllocatorImpl", %"class.llvm::SmallVector.6", %"class.std::optional" }
%"class.llvm::BumpPtrAllocatorImpl" = type { ptr, ptr, %"class.llvm::SmallVector", %"class.llvm::SmallVector.1", i64, i64 }
%"class.llvm::SmallVector" = type { %"class.llvm::SmallVectorImpl", %"struct.llvm::SmallVectorStorage" }
%"class.llvm::SmallVectorImpl" = type { %"class.llvm::SmallVectorTemplateBase" }
%"class.llvm::SmallVectorTemplateBase" = type { %"class.llvm::SmallVectorTemplateCommon" }
%"class.llvm::SmallVectorTemplateCommon" = type { %"class.llvm::SmallVectorBase" }
%"class.llvm::SmallVectorBase" = type { ptr, i32, i32 }
%"struct.llvm::SmallVectorStorage" = type { [32 x i8] }
%"class.llvm::SmallVector.1" = type { %"class.llvm::SmallVectorImpl.2" }
%"class.llvm::SmallVectorImpl.2" = type { %"class.llvm::SmallVectorTemplateBase.3" }
%"class.llvm::SmallVectorTemplateBase.3" = type { %"class.llvm::SmallVectorTemplateCommon.4" }
%"class.llvm::SmallVectorTemplateCommon.4" = type { %"class.llvm::SmallVectorBase" }
%"class.llvm::SmallVector.6" = type { %"class.llvm::SmallVectorImpl.7" }
%"class.llvm::SmallVectorImpl.7" = type { %"class.llvm::SmallVectorTemplateBase.8" }
%"class.llvm::SmallVectorTemplateBase.8" = type { %"class.llvm::SmallVectorTemplateCommon.9" }
%"class.llvm::SmallVectorTemplateCommon.9" = type { %"class.llvm::SmallVectorBase" }
%"class.std::optional" = type { %"struct.std::_Optional_base" }
%"struct.std::_Optional_base" = type { %"struct.std::_Optional_payload" }
%"struct.std::_Optional_payload" = type { %"struct.std::_Optional_payload.base", [7 x i8] }
%"struct.std::_Optional_payload.base" = type { %"struct.std::_Optional_payload_base.base" }
%"struct.std::_Optional_payload_base.base" = type <{ %"union.std::_Optional_payload_base<llvm::PrettyStackTraceProgram>::_Storage", i8 }>
%"union.std::_Optional_payload_base<llvm::PrettyStackTraceProgram>::_Storage" = type { %"class.llvm::PrettyStackTraceProgram" }
%"class.llvm::PrettyStackTraceProgram" = type { %"class.llvm::PrettyStackTraceEntry", i32, ptr }
%"class.llvm::PrettyStackTraceEntry" = type { ptr, ptr }
%"struct.llvm::ToolContext" = type { ptr, ptr, i8 }

@_ZN4llvm24DisableABIBreakingChecksE = external global i32, align 4
@_ZN4llvm30VerifyDisableABIBreakingChecksE = weak hidden local_unnamed_addr global ptr @_ZN4llvm24DisableABIBreakingChecksE, align 8

; Function Attrs: mustprogress norecurse nounwind uwtable
define dso_local noundef i32 @main(i32 noundef %0, ptr noundef %1) local_unnamed_addr #0 {
  %3 = alloca i32, align 4
  %4 = alloca ptr, align 8
  %5 = alloca %"class.llvm::InitLLVM", align 8
  %6 = alloca %"struct.llvm::ToolContext", align 8
  store i32 %0, ptr %3, align 4
  store ptr %1, ptr %4, align 8
  call void @_ZN4llvm8InitLLVMC2ERiRPPKcb(ptr noundef nonnull align 8 dereferenceable(152) %5, ptr noundef nonnull align 4 dereferenceable(4) %3, ptr noundef nonnull align 8 dereferenceable(8) %4, i1 noundef zeroext true) #3
  %7 = load i32, ptr %3, align 4
  %8 = load ptr, ptr %4, align 8
  %9 = load ptr, ptr %8, align 8
  store ptr %9, ptr %6, align 8
  %10 = getelementptr inbounds nuw i8, ptr %6, i64 8
  store ptr null, ptr %10, align 8
  %11 = getelementptr inbounds nuw i8, ptr %6, i64 16
  store i8 0, ptr %11, align 8
  %12 = call noundef i32 @_Z10clang_mainiPPcRKN4llvm11ToolContextE(i32 noundef %7, ptr noundef nonnull %8, ptr noundef nonnull align 8 dereferenceable(24) %6) #3
  call void @_ZN4llvm8InitLLVMD1Ev(ptr noundef nonnull align 8 dereferenceable(152) %5) #3
  ret i32 %12
}

declare noundef i32 @_Z10clang_mainiPPcRKN4llvm11ToolContextE(i32 noundef, ptr noundef, ptr noundef nonnull align 8 dereferenceable(24)) local_unnamed_addr #1

; Function Attrs: nounwind
declare void @_ZN4llvm8InitLLVMD1Ev(ptr noundef nonnull align 8 dereferenceable(152)) unnamed_addr #2

declare void @_ZN4llvm8InitLLVMC2ERiRPPKcb(ptr noundef nonnull align 8 dereferenceable(152), ptr noundef nonnull align 4 dereferenceable(4), ptr noundef nonnull align 8 dereferenceable(8), i1 noundef zeroext) unnamed_addr #1


!llvm.module.flags = !{!0, !1, !2, !3}

!0 = !{i32 1, !"wchar_size", i32 4}
!1 = !{i32 8, !"PIC Level", i32 2}
!2 = !{i32 7, !"uwtable", i32 2}
!3 = !{i32 7, !"frame-pointer", i32 2}
